; Function Attrs: mustprogress uwtable
define void @_ZN8QuantLib21ConstantCPIVolatilityC2ERKNS_6HandleINS_5QuoteEEEjRKNS_8CalendarENS_21BusinessDayConventionERKNS_10DayCounterERKNS_6PeriodENS_9FrequencyEb(ptr noundef nonnull align 8 dereferenceable(112) %this, ptr noundef %vtt, ptr nocapture noundef nonnull readonly align 8 dereferenceable(16) %vol, i32 noundef %settlementDays, ptr noundef nonnull align 8 dereferenceable(16) %cal, i32 noundef %bdc, ptr noundef nonnull align 8 dereferenceable(16) %dc, ptr noundef nonnull align 4 dereferenceable(8) %observationLag, i32 noundef %frequency, i1 noundef zeroext %indexIsInterpolated) unnamed_addr #6 align 2 personality ptr @__gxx_personality_v0 {
entry:
  %0 = getelementptr inbounds i8, ptr %vtt, i64 8
  tail call void @_ZN8QuantLib20CPIVolatilitySurfaceC2EjRKNS_8CalendarENS_21BusinessDayConventionERKNS_10DayCounterERKNS_6PeriodENS_9FrequencyEb(ptr noundef nonnull align 8 dereferenceable(93) %this, ptr noundef nonnull %0, i32 noundef %settlementDays, ptr noundef nonnull align 8 dereferenceable(16) %cal, i32 noundef %bdc, ptr noundef nonnull align 8 dereferenceable(16) %dc, ptr noundef nonnull align 4 dereferenceable(8) %observationLag, i32 noundef %frequency, i1 noundef zeroext %indexIsInterpolated)
  %1 = load ptr, ptr %vtt, align 8
  store ptr %1, ptr %this, align 8, !tbaa !42
  %2 = getelementptr inbounds i8, ptr %vtt, i64 80
  %3 = load ptr, ptr %2, align 8
  %vbase.offset.ptr = getelementptr i8, ptr %1, i64 -24
  %vbase.offset = load i64, ptr %vbase.offset.ptr, align 8
  %add.ptr = getelementptr inbounds i8, ptr %this, i64 %vbase.offset
  store ptr %3, ptr %add.ptr, align 8, !tbaa !42
  %4 = getelementptr inbounds i8, ptr %vtt, i64 88
  %5 = load ptr, ptr %4, align 8
  %vtable3 = load ptr, ptr %this, align 8, !tbaa !42
  %vbase.offset.ptr4 = getelementptr i8, ptr %vtable3, i64 -32
  %vbase.offset5 = load i64, ptr %vbase.offset.ptr4, align 8
  %add.ptr6 = getelementptr inbounds i8, ptr %this, i64 %vbase.offset5
  store ptr %5, ptr %add.ptr6, align 8, !tbaa !42
  %volatility_ = getelementptr inbounds nuw i8, ptr %this, i64 96
  %6 = load ptr, ptr %vol, align 8, !tbaa !55
  store ptr %6, ptr %volatility_, align 8, !tbaa !55
  %pn.i.i = getelementptr inbounds nuw i8, ptr %this, i64 104
  %pn3.i.i = getelementptr inbounds nuw i8, ptr %vol, i64 8
  %7 = load ptr, ptr %pn3.i.i, align 8, !tbaa !31
  store ptr %7, ptr %pn.i.i, align 8, !tbaa !31
  %cmp.not.i.i.i = icmp eq ptr %7, null
  br i1 %cmp.not.i.i.i, label %_ZN8QuantLib6HandleINS_5QuoteEEC2ERKS2_.exit, label %if.then.i.i.i

if.then.i.i.i:                                    ; preds = %entry
  %use_count_.i.i.i.i = getelementptr inbounds nuw i8, ptr %7, i64 8
  %8 = atomicrmw add ptr %use_count_.i.i.i.i, i32 1 monotonic, align 4
  br label %_ZN8QuantLib6HandleINS_5QuoteEEC2ERKS2_.exit

_ZN8QuantLib6HandleINS_5QuoteEEC2ERKS2_.exit:     ; preds = %entry, %if.then.i.i.i
  ret void
}